; Function Attrs: mustprogress nounwind uwtable
define void @_ZN2cv6detail8tracking24TrackerContribFeatureSet14clearResponsesEv(ptr nocapture noundef nonnull align 8 dereferenceable(56) %0) local_unnamed_addr #4 align 2 personality ptr @__gxx_personality_v0 {
  %2 = getelementptr inbounds i8, ptr %0, i64 32
  %3 = load ptr, ptr %2, align 8
  %4 = getelementptr inbounds i8, ptr %0, i64 40
  %5 = load ptr, ptr %4, align 8
  %.not.i.i = icmp eq ptr %5, %3
  br i1 %.not.i.i, label %_ZNSt6vectorIN2cv3MatESaIS1_EE5clearEv.exit, label %.lr.ph.i.i.i.i.i

.lr.ph.i.i.i.i.i:                                 ; preds = %1, %.lr.ph.i.i.i.i.i
  %.05.i.i.i.i.i = phi ptr [ %6, %.lr.ph.i.i.i.i.i ], [ %3, %1 ]
  tail call void @_ZN2cv3MatD1Ev(ptr noundef nonnull align 8 dereferenceable(96) %.05.i.i.i.i.i) #15
  %6 = getelementptr inbounds i8, ptr %.05.i.i.i.i.i, i64 96
  %.not.i.i.i.i.i = icmp eq ptr %6, %5
  br i1 %.not.i.i.i.i.i, label %_ZSt8_DestroyIPN2cv3MatES1_EvT_S3_RSaIT0_E.exit.i.i, label %.lr.ph.i.i.i.i.i, !llvm.loop !4

_ZSt8_DestroyIPN2cv3MatES1_EvT_S3_RSaIT0_E.exit.i.i: ; preds = %.lr.ph.i.i.i.i.i
  store ptr %3, ptr %4, align 8
  br label %_ZNSt6vectorIN2cv3MatESaIS1_EE5clearEv.exit

_ZNSt6vectorIN2cv3MatESaIS1_EE5clearEv.exit:      ; preds = %1, %_ZSt8_DestroyIPN2cv3MatES1_EvT_S3_RSaIT0_E.exit.i.i
  ret void
}